target datalayout = "e-m:e-p270:32:32-p271:32:32-p272:64:64-i64:64-i128:128-f80:128-n8:16:32:64-S128"
target triple = "x86_64-pc-linux-gnu"

@.str.12 = private unnamed_addr constant [17 x i8] c"CVodeGetNumSteps\00", align 1
@.str.19 = private unnamed_addr constant [20 x i8] c"CVodeGetNumRhsEvals\00", align 1
@.str.20 = private unnamed_addr constant [25 x i8] c"CVodeGetNumLinSolvSetups\00", align 1
@.str.21 = private unnamed_addr constant [24 x i8] c"CVodeGetNumErrTestFails\00", align 1
@.str.22 = private unnamed_addr constant [27 x i8] c"CVodeGetNumNonlinSolvIters\00", align 1
@.str.23 = private unnamed_addr constant [31 x i8] c"CVodeGetNumNonlinSolvConvFails\00", align 1
@.str.24 = private unnamed_addr constant [20 x i8] c"CVodeGetNumJacEvals\00", align 1
@.str.25 = private unnamed_addr constant [23 x i8] c"CVodeGetNumLinRhsEvals\00", align 1
@.str.26 = private unnamed_addr constant [20 x i8] c"\0AFinal Statistics:\0A\00", align 1
@.str.27 = private unnamed_addr constant [66 x i8] c"nst = %-6ld nfe  = %-6ld nsetups = %-6ld nfeLS = %-6ld nje = %ld\0A\00", align 1
@.str.28 = private unnamed_addr constant [39 x i8] c"nni = %-6ld ncfn = %-6ld netf = %ld\0A \0A\00", align 1
@stderr = external global ptr, align 8
@.str.29 = private unnamed_addr constant [55 x i8] c"\0ASUNDIALS_ERROR: %s() failed - returned NULL pointer\0A\0A\00", align 1
@.str.30 = private unnamed_addr constant [48 x i8] c"\0ASUNDIALS_ERROR: %s() failed with retval = %d\0A\0A\00", align 1
@.str.31 = private unnamed_addr constant [53 x i8] c"\0AMEMORY_ERROR: %s() failed - returned NULL pointer\0A\0A\00", align 1

; Function Attrs: nounwind uwtable
define internal i32 @check_retval(ptr noundef %0, ptr noundef %1, i32 noundef %2) #0 {
  %4 = alloca i32, align 4
  %5 = alloca ptr, align 8
  %6 = alloca ptr, align 8
  %7 = alloca i32, align 4
  %8 = alloca ptr, align 8
  %9 = alloca i32, align 4
  store ptr %0, ptr %5, align 8, !tbaa !9
  store ptr %1, ptr %6, align 8, !tbaa !28
  store i32 %2, ptr %7, align 4, !tbaa !14
  call void @llvm.lifetime.start.p0(i64 8, ptr %8) #6
  %10 = load i32, ptr %7, align 4, !tbaa !14
  %11 = icmp eq i32 %10, 0
  br i1 %11, label %12, label %19

12:                                               ; preds = %3
  %13 = load ptr, ptr %5, align 8, !tbaa !9
  %14 = icmp eq ptr %13, null
  br i1 %14, label %15, label %19

15:                                               ; preds = %12
  %16 = load ptr, ptr @stderr, align 8, !tbaa !30
  %17 = load ptr, ptr %6, align 8, !tbaa !28
  %18 = call i32 (ptr, ptr, ...) @fprintf(ptr noundef %16, ptr noundef @.str.29, ptr noundef %17) #6
  store i32 1, ptr %4, align 4
  store i32 1, ptr %9, align 4
  br label %47

19:                                               ; preds = %12, %3
  %20 = load i32, ptr %7, align 4, !tbaa !14
  %21 = icmp eq i32 %20, 1
  br i1 %21, label %22, label %34

22:                                               ; preds = %19
  %23 = load ptr, ptr %5, align 8, !tbaa !9
  store ptr %23, ptr %8, align 8, !tbaa !32
  %24 = load ptr, ptr %8, align 8, !tbaa !32
  %25 = load i32, ptr %24, align 4, !tbaa !14
  %26 = icmp slt i32 %25, 0
  br i1 %26, label %27, label %33

27:                                               ; preds = %22
  %28 = load ptr, ptr @stderr, align 8, !tbaa !30
  %29 = load ptr, ptr %6, align 8, !tbaa !28
  %30 = load ptr, ptr %8, align 8, !tbaa !32
  %31 = load i32, ptr %30, align 4, !tbaa !14
  %32 = call i32 (ptr, ptr, ...) @fprintf(ptr noundef %28, ptr noundef @.str.30, ptr noundef %29, i32 noundef %31) #6
  store i32 1, ptr %4, align 4
  store i32 1, ptr %9, align 4
  br label %47

33:                                               ; preds = %22
  br label %45

34:                                               ; preds = %19
  %35 = load i32, ptr %7, align 4, !tbaa !14
  %36 = icmp eq i32 %35, 2
  br i1 %36, label %37, label %44

37:                                               ; preds = %34
  %38 = load ptr, ptr %5, align 8, !tbaa !9
  %39 = icmp eq ptr %38, null
  br i1 %39, label %40, label %44

40:                                               ; preds = %37
  %41 = load ptr, ptr @stderr, align 8, !tbaa !30
  %42 = load ptr, ptr %6, align 8, !tbaa !28
  %43 = call i32 (ptr, ptr, ...) @fprintf(ptr noundef %41, ptr noundef @.str.31, ptr noundef %42) #6
  store i32 1, ptr %4, align 4
  store i32 1, ptr %9, align 4
  br label %47

44:                                               ; preds = %37, %34
  br label %45

45:                                               ; preds = %44, %33
  br label %46

46:                                               ; preds = %45
  store i32 0, ptr %4, align 4
  store i32 1, ptr %9, align 4
  br label %47

47:                                               ; preds = %46, %40, %27, %15
  call void @llvm.lifetime.end.p0(i64 8, ptr %8) #6
  %48 = load i32, ptr %4, align 4
  ret i32 %48
}

; Function Attrs: nounwind uwtable
define internal void @PrintFinalStats(ptr noundef %0) #0 {
  %2 = alloca ptr, align 8
  %3 = alloca i32, align 4
  %4 = alloca i64, align 8
  %5 = alloca i64, align 8
  %6 = alloca i64, align 8
  %7 = alloca i64, align 8
  %8 = alloca i64, align 8
  %9 = alloca i64, align 8
  %10 = alloca i64, align 8
  %11 = alloca i64, align 8
  store ptr %0, ptr %2, align 8, !tbaa !9
  call void @llvm.lifetime.start.p0(i64 4, ptr %3) #6
  call void @llvm.lifetime.start.p0(i64 8, ptr %4) #6
  call void @llvm.lifetime.start.p0(i64 8, ptr %5) #6
  call void @llvm.lifetime.start.p0(i64 8, ptr %6) #6
  call void @llvm.lifetime.start.p0(i64 8, ptr %7) #6
  call void @llvm.lifetime.start.p0(i64 8, ptr %8) #6
  call void @llvm.lifetime.start.p0(i64 8, ptr %9) #6
  call void @llvm.lifetime.start.p0(i64 8, ptr %10) #6
  call void @llvm.lifetime.start.p0(i64 8, ptr %11) #6
  %12 = load ptr, ptr %2, align 8, !tbaa !9
  %13 = call i32 @CVodeGetNumSteps(ptr noundef %12, ptr noundef %4)
  store i32 %13, ptr %3, align 4, !tbaa !14
  %14 = call i32 @check_retval(ptr noundef %3, ptr noundef @.str.12, i32 noundef 1)
  %15 = load ptr, ptr %2, align 8, !tbaa !9
  %16 = call i32 @CVodeGetNumRhsEvals(ptr noundef %15, ptr noundef %5)
  store i32 %16, ptr %3, align 4, !tbaa !14
  %17 = call i32 @check_retval(ptr noundef %3, ptr noundef @.str.19, i32 noundef 1)
  %18 = load ptr, ptr %2, align 8, !tbaa !9
  %19 = call i32 @CVodeGetNumLinSolvSetups(ptr noundef %18, ptr noundef %6)
  store i32 %19, ptr %3, align 4, !tbaa !14
  %20 = call i32 @check_retval(ptr noundef %3, ptr noundef @.str.20, i32 noundef 1)
  %21 = load ptr, ptr %2, align 8, !tbaa !9
  %22 = call i32 @CVodeGetNumErrTestFails(ptr noundef %21, ptr noundef %7)
  store i32 %22, ptr %3, align 4, !tbaa !14
  %23 = call i32 @check_retval(ptr noundef %3, ptr noundef @.str.21, i32 noundef 1)
  %24 = load ptr, ptr %2, align 8, !tbaa !9
  %25 = call i32 @CVodeGetNumNonlinSolvIters(ptr noundef %24, ptr noundef %8)
  store i32 %25, ptr %3, align 4, !tbaa !14
  %26 = call i32 @check_retval(ptr noundef %3, ptr noundef @.str.22, i32 noundef 1)
  %27 = load ptr, ptr %2, align 8, !tbaa !9
  %28 = call i32 @CVodeGetNumNonlinSolvConvFails(ptr noundef %27, ptr noundef %9)
  store i32 %28, ptr %3, align 4, !tbaa !14
  %29 = call i32 @check_retval(ptr noundef %3, ptr noundef @.str.23, i32 noundef 1)
  %30 = load ptr, ptr %2, align 8, !tbaa !9
  %31 = call i32 @CVodeGetNumJacEvals(ptr noundef %30, ptr noundef %10)
  store i32 %31, ptr %3, align 4, !tbaa !14
  %32 = call i32 @check_retval(ptr noundef %3, ptr noundef @.str.24, i32 noundef 1)
  %33 = load ptr, ptr %2, align 8, !tbaa !9
  %34 = call i32 @CVodeGetNumLinRhsEvals(ptr noundef %33, ptr noundef %11)
  store i32 %34, ptr %3, align 4, !tbaa !14
  %35 = call i32 @check_retval(ptr noundef %3, ptr noundef @.str.25, i32 noundef 1)
  %36 = call i32 (ptr, ...) @printf(ptr noundef @.str.26)
  %37 = load i64, ptr %4, align 8, !tbaa !26
  %38 = load i64, ptr %5, align 8, !tbaa !26
  %39 = load i64, ptr %6, align 8, !tbaa !26
  %40 = load i64, ptr %11, align 8, !tbaa !26
  %41 = load i64, ptr %10, align 8, !tbaa !26
  %42 = call i32 (ptr, ...) @printf(ptr noundef @.str.27, i64 noundef %37, i64 noundef %38, i64 noundef %39, i64 noundef %40, i64 noundef %41)
  %43 = load i64, ptr %8, align 8, !tbaa !26
  %44 = load i64, ptr %9, align 8, !tbaa !26
  %45 = load i64, ptr %7, align 8, !tbaa !26
  %46 = call i32 (ptr, ...) @printf(ptr noundef @.str.28, i64 noundef %43, i64 noundef %44, i64 noundef %45)
  call void @llvm.lifetime.end.p0(i64 8, ptr %11) #6
  call void @llvm.lifetime.end.p0(i64 8, ptr %10) #6
  call void @llvm.lifetime.end.p0(i64 8, ptr %9) #6
  call void @llvm.lifetime.end.p0(i64 8, ptr %8) #6
  call void @llvm.lifetime.end.p0(i64 8, ptr %7) #6
  call void @llvm.lifetime.end.p0(i64 8, ptr %6) #6
  call void @llvm.lifetime.end.p0(i64 8, ptr %5) #6
  call void @llvm.lifetime.end.p0(i64 8, ptr %4) #6
  call void @llvm.lifetime.end.p0(i64 4, ptr %3) #6
  ret void
}